target datalayout = "e-m:e-p270:32:32-p271:32:32-p272:64:64-i64:64-i128:128-f80:128-n8:16:32:64-S128"
target triple = "x86_64-pc-linux-gnu"

%struct.optstruct = type { ptr, ptr, ptr, i64, i32, i32, i32, i32, ptr, ptr, ptr }

@.str.36 = private unnamed_addr constant [10 x i8] c"run-cdiff\00", align 1
@.str.509 = private unnamed_addr constant [7 x i8] c".cdiff\00", align 1
@.str.510 = private unnamed_addr constant [8 x i8] c".script\00", align 1
@.str.511 = private unnamed_addr constant [60 x i8] c"rundiff: Incorrect file name (no .cdiff/.script extension)\0A\00", align 1
@.str.512 = private unnamed_addr constant [29 x i8] c"rundiff: Can't open file %s\0A\00", align 1

; Function Attrs: nounwind uwtable
define internal i32 @rundiff(ptr noundef %0) #0 {
  %2 = alloca i32, align 4
  %3 = alloca ptr, align 8
  %4 = alloca i32, align 4
  %5 = alloca i32, align 4
  %6 = alloca i16, align 2
  %7 = alloca ptr, align 8
  store ptr %0, ptr %3, align 8
  %8 = load ptr, ptr %3, align 8
  %9 = call ptr @optget(ptr noundef %8, ptr noundef @.str.36)
  %10 = getelementptr inbounds %struct.optstruct, ptr %9, i32 0, i32 2
  %11 = load ptr, ptr %10, align 8
  store ptr %11, ptr %7, align 8
  %12 = load ptr, ptr %7, align 8
  %13 = call ptr @strstr(ptr noundef %12, ptr noundef @.str.509) #14
  %14 = icmp ne ptr %13, null
  br i1 %14, label %15, label %16

15:                                               ; preds = %1
  store i16 1, ptr %6, align 2
  br label %23

16:                                               ; preds = %1
  %17 = load ptr, ptr %7, align 8
  %18 = call ptr @strstr(ptr noundef %17, ptr noundef @.str.510) #14
  %19 = icmp ne ptr %18, null
  br i1 %19, label %20, label %21

20:                                               ; preds = %16
  store i16 0, ptr %6, align 2
  br label %22

21:                                               ; preds = %16
  call void (i32, ptr, ...) @mprintf(i32 noundef 5, ptr noundef @.str.511)
  store i32 -1, ptr %2, align 4
  br label %42

22:                                               ; preds = %20
  br label %23

23:                                               ; preds = %22, %15
  %24 = load ptr, ptr %7, align 8
  %25 = call i32 (ptr, i32, ...) @open(ptr noundef %24, i32 noundef 0)
  store i32 %25, ptr %4, align 4
  %26 = icmp eq i32 %25, -1
  br i1 %26, label %27, label %29

27:                                               ; preds = %23
  %28 = load ptr, ptr %7, align 8
  call void (i32, ptr, ...) @mprintf(i32 noundef 5, ptr noundef @.str.512, ptr noundef %28)
  store i32 -1, ptr %2, align 4
  br label %42

29:                                               ; preds = %23
  %30 = load i32, ptr %4, align 4
  %31 = load i16, ptr %6, align 2
  %32 = call i32 @cdiff_apply(i32 noundef %30, i16 noundef zeroext %31)
  store i32 %32, ptr %5, align 4
  %33 = load i32, ptr %4, align 4
  %34 = call i32 @close(i32 noundef %33)
  %35 = load i32, ptr %5, align 4
  %36 = icmp ne i32 %35, 0
  br i1 %36, label %40, label %37

37:                                               ; preds = %29
  %38 = load ptr, ptr %7, align 8
  %39 = call i32 @comparesha(ptr noundef %38)
  store i32 %39, ptr %5, align 4
  br label %40

40:                                               ; preds = %37, %29
  %41 = load i32, ptr %5, align 4
  store i32 %41, ptr %2, align 4
  br label %42

42:                                               ; preds = %40, %27, %21
  %43 = load i32, ptr %2, align 4
  ret i32 %43
}