; Function Attrs: nounwind uwtable
define internal fastcc i32 @rundiff(ptr noundef %0) unnamed_addr #0 {
  %2 = tail call ptr @optget(ptr noundef %0, ptr noundef nonnull @.str.36) #25
  %3 = getelementptr inbounds i8, ptr %2, i64 16
  %4 = load ptr, ptr %3, align 8
  %5 = tail call ptr @strstr(ptr noundef nonnull dereferenceable(1) %4, ptr noundef nonnull dereferenceable(1) @.str.509) #31
  %.not = icmp eq ptr %5, null
  br i1 %.not, label %6, label %9

6:                                                ; preds = %1
  %7 = tail call ptr @strstr(ptr noundef nonnull dereferenceable(1) %4, ptr noundef nonnull dereferenceable(1) @.str.510) #31
  %.not15 = icmp eq ptr %7, null
  br i1 %.not15, label %8, label %9

8:                                                ; preds = %6
  tail call void (i32, ptr, ...) @mprintf(i32 noundef 5, ptr noundef nonnull @.str.511) #25
  br label %18

9:                                                ; preds = %6, %1
  %.011 = phi i16 [ 1, %1 ], [ 0, %6 ]
  %10 = tail call i32 (ptr, i32, ...) @open(ptr noundef %4, i32 noundef 0) #25
  %11 = icmp eq i32 %10, -1
  br i1 %11, label %12, label %13

12:                                               ; preds = %9
  tail call void (i32, ptr, ...) @mprintf(i32 noundef 5, ptr noundef nonnull @.str.512, ptr noundef %4) #25
  br label %18

13:                                               ; preds = %9
  %14 = tail call i32 @cdiff_apply(i32 noundef %10, i16 noundef zeroext %.011) #25
  %15 = tail call i32 @close(i32 noundef %10) #25
  %.not16 = icmp eq i32 %14, 0
  br i1 %.not16, label %16, label %18

16:                                               ; preds = %13
  %17 = tail call fastcc i32 @comparesha(ptr noundef %4), !range !5
  br label %18

18:                                               ; preds = %13, %16, %12, %8
  %.0 = phi i32 [ -1, %12 ], [ -1, %8 ], [ %14, %13 ], [ %17, %16 ]
  ret i32 %.0
}